target datalayout = "e-m:e-p270:32:32-p271:32:32-p272:64:64-i64:64-i128:128-f80:128-n8:16:32:64-S128"
target triple = "x86_64-pc-linux-gnu"

%struct.AVFilterContext = type { ptr, ptr, ptr, ptr, ptr, i32, ptr, ptr, i32, ptr, ptr, i32, i32, ptr, ptr, ptr, ptr, i32, ptr, i32, i32 }
%struct.HWMapContext = type { ptr, ptr, i32, ptr, i32 }
%struct.AVFilterFormatsConfig = type { ptr, ptr, ptr, ptr, ptr }
%struct.AVFilterLink = type { ptr, ptr, ptr, ptr, i32, i32, i32, i32, %struct.AVRational, i32, i32, i32, %struct.AVChannelLayout, %struct.AVRational, ptr, i32, %struct.AVFilterFormatsConfig, %struct.AVFilterFormatsConfig }
%struct.AVChannelLayout = type { i32, i32, %union.anon.1, ptr }
%union.anon.1 = type { i64 }
%struct.AVRational = type { i32, i32 }
%struct.AVFrame = type { [8 x ptr], [8 x i32], ptr, i32, i32, i32, i32, i32, %struct.AVRational, i64, i64, %struct.AVRational, i32, ptr, i32, i32, [8 x ptr], ptr, i32, ptr, i32, i32, i32, i32, i32, i32, i32, i64, ptr, i32, ptr, ptr, i64, i64, i64, i64, ptr, %struct.AVChannelLayout, i64 }

@.str.5 = private unnamed_addr constant [32 x i8] c"Filter input: %s, %ux%u (%ld).\0A\00", align 1
@.str.6 = private unnamed_addr constant [26 x i8] c"Failed to map frame: %d.\0A\00", align 1
@.str.7 = private unnamed_addr constant [33 x i8] c"Filter output: %s, %ux%u (%ld).\0A\00", align 1

; Function Attrs: nounwind uwtable
define internal i32 @hwmap_filter_frame(ptr noundef %0, ptr noundef %1) #1 {
  %3 = alloca i32, align 4
  %4 = alloca ptr, align 8
  %5 = alloca ptr, align 8
  %6 = alloca ptr, align 8
  %7 = alloca ptr, align 8
  %8 = alloca ptr, align 8
  %9 = alloca ptr, align 8
  %10 = alloca i32, align 4
  %11 = alloca i32, align 4
  store ptr %0, ptr %4, align 8, !tbaa !29
  store ptr %1, ptr %5, align 8, !tbaa !47
  call void @llvm.lifetime.start.p0(i64 8, ptr %6) #5
  %12 = load ptr, ptr %4, align 8, !tbaa !29
  %13 = getelementptr inbounds nuw %struct.AVFilterLink, ptr %12, i32 0, i32 2
  %14 = load ptr, ptr %13, align 8, !tbaa !33
  store ptr %14, ptr %6, align 8, !tbaa !4
  call void @llvm.lifetime.start.p0(i64 8, ptr %7) #5
  %15 = load ptr, ptr %6, align 8, !tbaa !4
  %16 = getelementptr inbounds nuw %struct.AVFilterContext, ptr %15, i32 0, i32 7
  %17 = load ptr, ptr %16, align 8, !tbaa !41
  %18 = getelementptr inbounds ptr, ptr %17, i64 0
  %19 = load ptr, ptr %18, align 8, !tbaa !29
  store ptr %19, ptr %7, align 8, !tbaa !29
  call void @llvm.lifetime.start.p0(i64 8, ptr %8) #5
  %20 = load ptr, ptr %6, align 8, !tbaa !4
  %21 = getelementptr inbounds nuw %struct.AVFilterContext, ptr %20, i32 0, i32 9
  %22 = load ptr, ptr %21, align 8, !tbaa !9
  store ptr %22, ptr %8, align 8, !tbaa !22
  call void @llvm.lifetime.start.p0(i64 8, ptr %9) #5
  store ptr null, ptr %9, align 8, !tbaa !47
  call void @llvm.lifetime.start.p0(i64 4, ptr %10) #5
  %23 = load ptr, ptr %8, align 8, !tbaa !22
  %24 = load ptr, ptr %5, align 8, !tbaa !47
  %25 = getelementptr inbounds nuw %struct.AVFrame, ptr %24, i32 0, i32 6
  %26 = load i32, ptr %25, align 4, !tbaa !50
  %27 = call ptr @av_get_pix_fmt_name(i32 noundef %26)
  %28 = load ptr, ptr %5, align 8, !tbaa !47
  %29 = getelementptr inbounds nuw %struct.AVFrame, ptr %28, i32 0, i32 3
  %30 = load i32, ptr %29, align 8, !tbaa !55
  %31 = load ptr, ptr %5, align 8, !tbaa !47
  %32 = getelementptr inbounds nuw %struct.AVFrame, ptr %31, i32 0, i32 4
  %33 = load i32, ptr %32, align 4, !tbaa !56
  %34 = load ptr, ptr %5, align 8, !tbaa !47
  %35 = getelementptr inbounds nuw %struct.AVFrame, ptr %34, i32 0, i32 9
  %36 = load i64, ptr %35, align 8, !tbaa !57
  call void (ptr, i32, ptr, ...) @av_log(ptr noundef %23, i32 noundef 48, ptr noundef @.str.5, ptr noundef %27, i32 noundef %30, i32 noundef %33, i64 noundef %36)
  %37 = call ptr @av_frame_alloc()
  store ptr %37, ptr %9, align 8, !tbaa !47
  %38 = load ptr, ptr %9, align 8, !tbaa !47
  %39 = icmp ne ptr %38, null
  br i1 %39, label %41, label %40

40:                                               ; preds = %2
  store i32 -12, ptr %10, align 4, !tbaa !28
  br label %118

41:                                               ; preds = %2
  %42 = load ptr, ptr %7, align 8, !tbaa !29
  %43 = getelementptr inbounds nuw %struct.AVFilterLink, ptr %42, i32 0, i32 5
  %44 = load i32, ptr %43, align 4, !tbaa !58
  %45 = load ptr, ptr %9, align 8, !tbaa !47
  %46 = getelementptr inbounds nuw %struct.AVFrame, ptr %45, i32 0, i32 6
  store i32 %44, ptr %46, align 4, !tbaa !50
  %47 = load ptr, ptr %8, align 8, !tbaa !22
  %48 = getelementptr inbounds nuw %struct.HWMapContext, ptr %47, i32 0, i32 1
  %49 = load ptr, ptr %48, align 8, !tbaa !59
  %50 = call ptr @av_buffer_ref(ptr noundef %49)
  %51 = load ptr, ptr %9, align 8, !tbaa !47
  %52 = getelementptr inbounds nuw %struct.AVFrame, ptr %51, i32 0, i32 30
  store ptr %50, ptr %52, align 8, !tbaa !60
  %53 = load ptr, ptr %9, align 8, !tbaa !47
  %54 = getelementptr inbounds nuw %struct.AVFrame, ptr %53, i32 0, i32 30
  %55 = load ptr, ptr %54, align 8, !tbaa !60
  %56 = icmp ne ptr %55, null
  br i1 %56, label %58, label %57

57:                                               ; preds = %41
  store i32 -12, ptr %10, align 4, !tbaa !28
  br label %118

58:                                               ; preds = %41
  %59 = load ptr, ptr %8, align 8, !tbaa !22
  %60 = getelementptr inbounds nuw %struct.HWMapContext, ptr %59, i32 0, i32 4
  %61 = load i32, ptr %60, align 8, !tbaa !42
  %62 = icmp ne i32 %61, 0
  br i1 %62, label %63, label %81

63:                                               ; preds = %58
  %64 = load ptr, ptr %5, align 8, !tbaa !47
  %65 = getelementptr inbounds nuw %struct.AVFrame, ptr %64, i32 0, i32 30
  %66 = load ptr, ptr %65, align 8, !tbaa !60
  %67 = icmp ne ptr %66, null
  br i1 %67, label %81, label %68

68:                                               ; preds = %63
  %69 = load ptr, ptr %8, align 8, !tbaa !22
  %70 = getelementptr inbounds nuw %struct.HWMapContext, ptr %69, i32 0, i32 1
  %71 = load ptr, ptr %70, align 8, !tbaa !59
  %72 = call ptr @av_buffer_ref(ptr noundef %71)
  %73 = load ptr, ptr %5, align 8, !tbaa !47
  %74 = getelementptr inbounds nuw %struct.AVFrame, ptr %73, i32 0, i32 30
  store ptr %72, ptr %74, align 8, !tbaa !60
  %75 = load ptr, ptr %5, align 8, !tbaa !47
  %76 = getelementptr inbounds nuw %struct.AVFrame, ptr %75, i32 0, i32 30
  %77 = load ptr, ptr %76, align 8, !tbaa !60
  %78 = icmp ne ptr %77, null
  br i1 %78, label %80, label %79

79:                                               ; preds = %68
  store i32 -12, ptr %10, align 4, !tbaa !28
  br label %118

80:                                               ; preds = %68
  br label %81

81:                                               ; preds = %80, %63, %58
  %82 = load ptr, ptr %9, align 8, !tbaa !47
  %83 = load ptr, ptr %5, align 8, !tbaa !47
  %84 = load ptr, ptr %8, align 8, !tbaa !22
  %85 = getelementptr inbounds nuw %struct.HWMapContext, ptr %84, i32 0, i32 2
  %86 = load i32, ptr %85, align 8, !tbaa !49
  %87 = call i32 @av_hwframe_map(ptr noundef %82, ptr noundef %83, i32 noundef %86)
  store i32 %87, ptr %10, align 4, !tbaa !28
  %88 = load i32, ptr %10, align 4, !tbaa !28
  %89 = icmp slt i32 %88, 0
  br i1 %89, label %90, label %93

90:                                               ; preds = %81
  %91 = load ptr, ptr %6, align 8, !tbaa !4
  %92 = load i32, ptr %10, align 4, !tbaa !28
  call void (ptr, i32, ptr, ...) @av_log(ptr noundef %91, i32 noundef 16, ptr noundef @.str.6, i32 noundef %92)
  br label %118

93:                                               ; preds = %81
  %94 = load ptr, ptr %9, align 8, !tbaa !47
  %95 = load ptr, ptr %5, align 8, !tbaa !47
  %96 = call i32 @av_frame_copy_props(ptr noundef %94, ptr noundef %95)
  store i32 %96, ptr %10, align 4, !tbaa !28
  %97 = load i32, ptr %10, align 4, !tbaa !28
  %98 = icmp slt i32 %97, 0
  br i1 %98, label %99, label %100

99:                                               ; preds = %93
  br label %118

100:                                              ; preds = %93
  call void @av_frame_free(ptr noundef %5)
  %101 = load ptr, ptr %8, align 8, !tbaa !22
  %102 = load ptr, ptr %9, align 8, !tbaa !47
  %103 = getelementptr inbounds nuw %struct.AVFrame, ptr %102, i32 0, i32 6
  %104 = load i32, ptr %103, align 4, !tbaa !50
  %105 = call ptr @av_get_pix_fmt_name(i32 noundef %104)
  %106 = load ptr, ptr %9, align 8, !tbaa !47
  %107 = getelementptr inbounds nuw %struct.AVFrame, ptr %106, i32 0, i32 3
  %108 = load i32, ptr %107, align 8, !tbaa !55
  %109 = load ptr, ptr %9, align 8, !tbaa !47
  %110 = getelementptr inbounds nuw %struct.AVFrame, ptr %109, i32 0, i32 4
  %111 = load i32, ptr %110, align 4, !tbaa !56
  %112 = load ptr, ptr %9, align 8, !tbaa !47
  %113 = getelementptr inbounds nuw %struct.AVFrame, ptr %112, i32 0, i32 9
  %114 = load i64, ptr %113, align 8, !tbaa !57
  call void (ptr, i32, ptr, ...) @av_log(ptr noundef %101, i32 noundef 48, ptr noundef @.str.7, ptr noundef %105, i32 noundef %108, i32 noundef %111, i64 noundef %114)
  %115 = load ptr, ptr %7, align 8, !tbaa !29
  %116 = load ptr, ptr %9, align 8, !tbaa !47
  %117 = call i32 @ff_filter_frame(ptr noundef %115, ptr noundef %116)
  store i32 %117, ptr %3, align 4
  store i32 1, ptr %11, align 4
  br label %120

118:                                              ; preds = %99, %90, %79, %57, %40
  call void @av_frame_free(ptr noundef %5)
  call void @av_frame_free(ptr noundef %9)
  %119 = load i32, ptr %10, align 4, !tbaa !28
  store i32 %119, ptr %3, align 4
  store i32 1, ptr %11, align 4
  br label %120

120:                                              ; preds = %118, %100
  call void @llvm.lifetime.end.p0(i64 4, ptr %10) #5
  call void @llvm.lifetime.end.p0(i64 8, ptr %9) #5
  call void @llvm.lifetime.end.p0(i64 8, ptr %8) #5
  call void @llvm.lifetime.end.p0(i64 8, ptr %7) #5
  call void @llvm.lifetime.end.p0(i64 8, ptr %6) #5
  %121 = load i32, ptr %3, align 4
  ret i32 %121
}