; Function Attrs: nounwind uwtable
define internal i32 @hwmap_filter_frame(ptr noundef readonly captures(none) %0, ptr noundef %1) #1 {
  %3 = alloca ptr, align 8
  %4 = alloca ptr, align 8
  store ptr %1, ptr %3, align 8, !tbaa !39
  %5 = getelementptr inbounds nuw i8, ptr %0, i64 16
  %6 = load ptr, ptr %5, align 8, !tbaa !22
  %7 = getelementptr inbounds nuw i8, ptr %6, i64 56
  %8 = load ptr, ptr %7, align 8, !tbaa !31
  %9 = load ptr, ptr %8, align 8, !tbaa !32
  %10 = getelementptr inbounds nuw i8, ptr %6, i64 72
  %11 = load ptr, ptr %10, align 8, !tbaa !4
  call void @llvm.lifetime.start.p0(i64 8, ptr nonnull %4) #5
  %12 = getelementptr inbounds nuw i8, ptr %1, i64 116
  %13 = load i32, ptr %12, align 4, !tbaa !42
  %14 = tail call ptr @av_get_pix_fmt_name(i32 noundef %13) #5
  %15 = getelementptr inbounds nuw i8, ptr %1, i64 104
  %16 = load i32, ptr %15, align 8, !tbaa !47
  %17 = getelementptr inbounds nuw i8, ptr %1, i64 108
  %18 = load i32, ptr %17, align 4, !tbaa !48
  %19 = getelementptr inbounds nuw i8, ptr %1, i64 136
  %20 = load i64, ptr %19, align 8, !tbaa !49
  tail call void (ptr, i32, ptr, ...) @av_log(ptr noundef %11, i32 noundef 48, ptr noundef nonnull @.str.5, ptr noundef %14, i32 noundef %16, i32 noundef %18, i64 noundef %20) #5
  %21 = tail call ptr @av_frame_alloc() #5
  store ptr %21, ptr %4, align 8, !tbaa !39
  %.not = icmp eq ptr %21, null
  br i1 %.not, label %58, label %22

22:                                               ; preds = %2
  %23 = getelementptr inbounds nuw i8, ptr %9, i64 36
  %24 = load i32, ptr %23, align 4, !tbaa !50
  %25 = getelementptr inbounds nuw i8, ptr %21, i64 116
  store i32 %24, ptr %25, align 4, !tbaa !42
  %26 = getelementptr inbounds nuw i8, ptr %11, i64 8
  %27 = load ptr, ptr %26, align 8, !tbaa !51
  %28 = tail call ptr @av_buffer_ref(ptr noundef %27) #5
  %29 = getelementptr inbounds nuw i8, ptr %21, i64 328
  store ptr %28, ptr %29, align 8, !tbaa !52
  %.not20 = icmp eq ptr %28, null
  br i1 %.not20, label %58, label %30

30:                                               ; preds = %22
  %31 = getelementptr inbounds nuw i8, ptr %11, i64 32
  %32 = load i32, ptr %31, align 8, !tbaa !34
  %.not21 = icmp eq i32 %32, 0
  br i1 %.not21, label %39, label %33

33:                                               ; preds = %30
  %34 = getelementptr inbounds nuw i8, ptr %1, i64 328
  %35 = load ptr, ptr %34, align 8, !tbaa !52
  %.not22 = icmp eq ptr %35, null
  br i1 %.not22, label %36, label %39

36:                                               ; preds = %33
  %37 = load ptr, ptr %26, align 8, !tbaa !51
  %38 = tail call ptr @av_buffer_ref(ptr noundef %37) #5
  store ptr %38, ptr %34, align 8, !tbaa !52
  %.not23 = icmp eq ptr %38, null
  br i1 %.not23, label %58, label %39

39:                                               ; preds = %36, %33, %30
  %40 = getelementptr inbounds nuw i8, ptr %11, i64 16
  %41 = load i32, ptr %40, align 8, !tbaa !41
  %42 = tail call i32 @av_hwframe_map(ptr noundef nonnull %21, ptr noundef nonnull %1, i32 noundef %41) #5
  %43 = icmp slt i32 %42, 0
  br i1 %43, label %44, label %45

44:                                               ; preds = %39
  tail call void (ptr, i32, ptr, ...) @av_log(ptr noundef nonnull %6, i32 noundef 16, ptr noundef nonnull @.str.6, i32 noundef %42) #5
  br label %58

45:                                               ; preds = %39
  %46 = tail call i32 @av_frame_copy_props(ptr noundef nonnull %21, ptr noundef nonnull %1) #5
  %47 = icmp slt i32 %46, 0
  br i1 %47, label %58, label %48

48:                                               ; preds = %45
  call void @av_frame_free(ptr noundef nonnull %3) #5
  %49 = load i32, ptr %25, align 4, !tbaa !42
  %50 = call ptr @av_get_pix_fmt_name(i32 noundef %49) #5
  %51 = getelementptr inbounds nuw i8, ptr %21, i64 104
  %52 = load i32, ptr %51, align 8, !tbaa !47
  %53 = getelementptr inbounds nuw i8, ptr %21, i64 108
  %54 = load i32, ptr %53, align 4, !tbaa !48
  %55 = getelementptr inbounds nuw i8, ptr %21, i64 136
  %56 = load i64, ptr %55, align 8, !tbaa !49
  call void (ptr, i32, ptr, ...) @av_log(ptr noundef nonnull %11, i32 noundef 48, ptr noundef nonnull @.str.7, ptr noundef %50, i32 noundef %52, i32 noundef %54, i64 noundef %56) #5
  %57 = call i32 @ff_filter_frame(ptr noundef nonnull %9, ptr noundef nonnull %21) #5
  br label %59

58:                                               ; preds = %36, %22, %2, %45, %44
  %.0 = phi i32 [ %42, %44 ], [ %46, %45 ], [ -12, %2 ], [ -12, %22 ], [ -12, %36 ]
  call void @av_frame_free(ptr noundef nonnull %3) #5
  call void @av_frame_free(ptr noundef nonnull %4) #5
  br label %59

59:                                               ; preds = %58, %48
  %.016 = phi i32 [ %.0, %58 ], [ %57, %48 ]
  call void @llvm.lifetime.end.p0(i64 8, ptr nonnull %4) #5
  ret i32 %.016
}